target datalayout = "e-m:e-p270:32:32-p271:32:32-p272:64:64-i64:64-i128:128-f80:128-n8:16:32:64-S128"
target triple = "x86_64-unknown-linux-gnu"

%"struct.google::SiteFlag" = type { ptr, ptr, i64, ptr }
%"class.google::LogMessage" = type { ptr, ptr, %"struct.google::LogMessageTime" }
%"struct.google::LogMessageTime" = type { %struct.tm, i64, i32, i64 }
%struct.tm = type { i32, i32, i32, i32, i32, i32, i32, i32, i32, i64, ptr }
%"class.google::LogMessageVoidify" = type { i8 }
%"class.proxygen::HPACKDecodeBuffer" = type <{ ptr, i32, i32, i32, i8, [3 x i8] }>

@.str = private unnamed_addr constant [150 x i8] c"generated/home/dtcxzyw/WorkSpace/Projects/compilers/llvm-opt-benchmark/bench/proxygen/proxygen/proxygen/lib/http/codec/compress/HPACKDecodeBuffer.cpp\00", align 1
@_ZZNK8proxygen17HPACKDecodeBuffer7EOB_LOGENSt7__cxx1112basic_stringIcSt11char_traitsIcESaIcEEENS_5HPACK11DecodeErrorEE8vlocal__ = internal global %"struct.google::SiteFlag" zeroinitializer, align 8
@_ZN3fLI7FLAGS_vE = external global i32, align 4

; Function Attrs: mustprogress nounwind uwtable
define linkonce_odr void @_ZN6google17LogMessageVoidifyanERSo(ptr noundef nonnull align 1 dereferenceable(1) %this, ptr noundef nonnull align 8 dereferenceable(8) %0) #3 comdat align 2 {
entry:
  %this.addr = alloca ptr, align 8
  %.addr = alloca ptr, align 8
  store ptr %this, ptr %this.addr, align 8
  store ptr %0, ptr %.addr, align 8
  ret void
}

; Function Attrs: mustprogress nounwind uwtable
define linkonce_odr void @_ZN6google17LogMessageVoidifyC2Ev(ptr noundef nonnull align 1 dereferenceable(1) %this) unnamed_addr #3 comdat align 2 {
entry:
  %this.addr = alloca ptr, align 8
  store ptr %this, ptr %this.addr, align 8
  ret void
}

; Function Attrs: mustprogress uwtable
define void @_ZNK8proxygen17HPACKDecodeBuffer7EOB_LOGENSt7__cxx1112basic_stringIcSt11char_traitsIcESaIcEEENS_5HPACK11DecodeErrorE(ptr noundef nonnull align 8 dereferenceable(21) %this, ptr noundef %msg, i8 noundef zeroext %code) #0 align 2 personality ptr @__gxx_personality_v0 {
entry:
  %this.addr = alloca ptr, align 8
  %msg.indirect_addr = alloca ptr, align 8
  %code.addr = alloca i8, align 1
  %ref.tmp = alloca %"class.google::LogMessage", align 8
  %exn.slot = alloca ptr, align 8
  %ehselector.slot = alloca i32, align 4
  %verbose_level__ = alloca i32, align 4
  %tmp = alloca i8, align 1
  %ref.tmp10 = alloca %"class.google::LogMessageVoidify", align 1
  %ref.tmp11 = alloca %"class.google::LogMessage", align 8
  %cleanup.cond = alloca i1, align 1
  store ptr %this, ptr %this.addr, align 8
  store ptr %msg, ptr %msg.indirect_addr, align 8
  store i8 %code, ptr %code.addr, align 1
  %this1 = load ptr, ptr %this.addr, align 8
  %endOfBufferIsError_ = getelementptr inbounds %"class.proxygen::HPACKDecodeBuffer", ptr %this1, i32 0, i32 4
  %0 = load i8, ptr %endOfBufferIsError_, align 4
  %tobool = trunc i8 %0 to i1
  br i1 %tobool, label %if.then, label %lor.lhs.false

lor.lhs.false:                                    ; preds = %entry
  %1 = load i8, ptr %code.addr, align 1
  %cmp = icmp ne i8 %1, 7
  br i1 %cmp, label %if.then, label %if.else

if.then:                                          ; preds = %lor.lhs.false, %entry
  call void @_ZN6google10LogMessageC1EPKcii(ptr noundef nonnull align 8 dereferenceable(96) %ref.tmp, ptr noundef @.str, i32 noundef 23, i32 noundef 2)
  %call = invoke noundef nonnull align 8 dereferenceable(8) ptr @_ZN6google10LogMessage6streamEv(ptr noundef nonnull align 8 dereferenceable(96) %ref.tmp)
          to label %invoke.cont unwind label %lpad

invoke.cont:                                      ; preds = %if.then
  %call3 = invoke noundef nonnull align 8 dereferenceable(8) ptr @_ZStlsIcSt11char_traitsIcESaIcEERSt13basic_ostreamIT_T0_ES7_RKNSt7__cxx1112basic_stringIS4_S5_T1_EE(ptr noundef nonnull align 8 dereferenceable(8) %call, ptr noundef nonnull align 8 dereferenceable(32) %msg)
          to label %invoke.cont2 unwind label %lpad

invoke.cont2:                                     ; preds = %invoke.cont
  call void @_ZN6google10LogMessageD1Ev(ptr noundef nonnull align 8 dereferenceable(96) %ref.tmp) #5
  br label %if.end

lpad:                                             ; preds = %invoke.cont, %if.then
  %2 = landingpad { ptr, i32 }
          cleanup
  %3 = extractvalue { ptr, i32 } %2, 0
  store ptr %3, ptr %exn.slot, align 8
  %4 = extractvalue { ptr, i32 } %2, 1
  store i32 %4, ptr %ehselector.slot, align 4
  call void @_ZN6google10LogMessageD1Ev(ptr noundef nonnull align 8 dereferenceable(96) %ref.tmp) #5
  br label %eh.resume

if.else:                                          ; preds = %lor.lhs.false
  store i32 4, ptr %verbose_level__, align 4
  %5 = load ptr, ptr @_ZZNK8proxygen17HPACKDecodeBuffer7EOB_LOGENSt7__cxx1112basic_stringIcSt11char_traitsIcESaIcEEENS_5HPACK11DecodeErrorEE8vlocal__, align 8
  %cmp4 = icmp eq ptr %5, null
  store i1 false, ptr %cleanup.cond, align 1
  br i1 %cmp4, label %cond.true, label %cond.false

cond.true:                                        ; preds = %if.else
  %6 = load i32, ptr %verbose_level__, align 4
  %call5 = call noundef zeroext i1 @_ZN6google11InitVLOG3__EPNS_8SiteFlagEPiPKci(ptr noundef @_ZZNK8proxygen17HPACKDecodeBuffer7EOB_LOGENSt7__cxx1112basic_stringIcSt11char_traitsIcESaIcEEENS_5HPACK11DecodeErrorEE8vlocal__, ptr noundef @_ZN3fLI7FLAGS_vE, ptr noundef @.str, i32 noundef %6)
  br label %cond.end

cond.false:                                       ; preds = %if.else
  %7 = load ptr, ptr @_ZZNK8proxygen17HPACKDecodeBuffer7EOB_LOGENSt7__cxx1112basic_stringIcSt11char_traitsIcESaIcEEENS_5HPACK11DecodeErrorEE8vlocal__, align 8
  %8 = load i32, ptr %7, align 4
  %9 = load i32, ptr %verbose_level__, align 4
  %cmp6 = icmp sge i32 %8, %9
  br label %cond.end

cond.end:                                         ; preds = %cond.false, %cond.true
  %cond = phi i1 [ %call5, %cond.true ], [ %cmp6, %cond.false ]
  %frombool = zext i1 %cond to i8
  store i8 %frombool, ptr %tmp, align 1
  %10 = load i8, ptr %tmp, align 1
  %tobool7 = trunc i8 %10 to i1
  br i1 %tobool7, label %cond.false9, label %cond.true8

cond.true8:                                       ; preds = %cond.end
  br label %cond.end18

cond.false9:                                      ; preds = %cond.end
  call void @_ZN6google17LogMessageVoidifyC2Ev(ptr noundef nonnull align 1 dereferenceable(1) %ref.tmp10)
  call void @_ZN6google10LogMessageC1EPKci(ptr noundef nonnull align 8 dereferenceable(96) %ref.tmp11, ptr noundef @.str, i32 noundef 25)
  store i1 true, ptr %cleanup.cond, align 1
  %call14 = invoke noundef nonnull align 8 dereferenceable(8) ptr @_ZN6google10LogMessage6streamEv(ptr noundef nonnull align 8 dereferenceable(96) %ref.tmp11)
          to label %invoke.cont13 unwind label %lpad12

invoke.cont13:                                    ; preds = %cond.false9
  %call16 = invoke noundef nonnull align 8 dereferenceable(8) ptr @_ZStlsIcSt11char_traitsIcESaIcEERSt13basic_ostreamIT_T0_ES7_RKNSt7__cxx1112basic_stringIS4_S5_T1_EE(ptr noundef nonnull align 8 dereferenceable(8) %call14, ptr noundef nonnull align 8 dereferenceable(32) %msg)
          to label %invoke.cont15 unwind label %lpad12

invoke.cont15:                                    ; preds = %invoke.cont13
  invoke void @_ZN6google17LogMessageVoidifyanERSo(ptr noundef nonnull align 1 dereferenceable(1) %ref.tmp10, ptr noundef nonnull align 8 dereferenceable(8) %call16)
          to label %invoke.cont17 unwind label %lpad12

invoke.cont17:                                    ; preds = %invoke.cont15
  br label %cond.end18

cond.end18:                                       ; preds = %invoke.cont17, %cond.true8
  %cleanup.is_active = load i1, ptr %cleanup.cond, align 1
  br i1 %cleanup.is_active, label %cleanup.action, label %cleanup.done

cleanup.action:                                   ; preds = %cond.end18
  call void @_ZN6google10LogMessageD1Ev(ptr noundef nonnull align 8 dereferenceable(96) %ref.tmp11) #5
  br label %cleanup.done

cleanup.done:                                     ; preds = %cleanup.action, %cond.end18
  br label %if.end

lpad12:                                           ; preds = %invoke.cont15, %invoke.cont13, %cond.false9
  %11 = landingpad { ptr, i32 }
          cleanup
  %12 = extractvalue { ptr, i32 } %11, 0
  store ptr %12, ptr %exn.slot, align 8
  %13 = extractvalue { ptr, i32 } %11, 1
  store i32 %13, ptr %ehselector.slot, align 4
  %cleanup.is_active19 = load i1, ptr %cleanup.cond, align 1
  br i1 %cleanup.is_active19, label %cleanup.action20, label %cleanup.done21

cleanup.action20:                                 ; preds = %lpad12
  call void @_ZN6google10LogMessageD1Ev(ptr noundef nonnull align 8 dereferenceable(96) %ref.tmp11) #5
  br label %cleanup.done21

cleanup.done21:                                   ; preds = %cleanup.action20, %lpad12
  br label %eh.resume

if.end:                                           ; preds = %cleanup.done, %invoke.cont2
  ret void

eh.resume:                                        ; preds = %cleanup.done21, %lpad
  %exn = load ptr, ptr %exn.slot, align 8
  %sel = load i32, ptr %ehselector.slot, align 4
  %lpad.val = insertvalue { ptr, i32 } poison, ptr %exn, 0
  %lpad.val22 = insertvalue { ptr, i32 } %lpad.val, i32 %sel, 1
  resume { ptr, i32 } %lpad.val22
}