; Function Attrs: mustprogress uwtable
define void @_ZNK8proxygen17HPACKDecodeBuffer7EOB_LOGENSt7__cxx1112basic_stringIcSt11char_traitsIcESaIcEEENS_5HPACK11DecodeErrorE(ptr nocapture noundef nonnull readonly align 8 dereferenceable(21) %this, ptr noundef %msg, i8 noundef zeroext %code) local_unnamed_addr #0 align 2 personality ptr @__gxx_personality_v0 {
entry:
  %ref.tmp = alloca %"class.google::LogMessage", align 8
  %ref.tmp11 = alloca %"class.google::LogMessage", align 8
  %endOfBufferIsError_ = getelementptr inbounds i8, ptr %this, i64 20
  %0 = load i8, ptr %endOfBufferIsError_, align 4
  %1 = and i8 %0, 1
  %tobool = icmp ne i8 %1, 0
  %cmp = icmp ne i8 %code, 7
  %or.cond = or i1 %cmp, %tobool
  br i1 %or.cond, label %if.then, label %if.else

if.then:                                          ; preds = %entry
  call void @_ZN6google10LogMessageC1EPKcii(ptr noundef nonnull align 8 dereferenceable(96) %ref.tmp, ptr noundef nonnull @.str, i32 noundef 23, i32 noundef 2)
  %call = invoke noundef nonnull align 8 dereferenceable(8) ptr @_ZN6google10LogMessage6streamEv(ptr noundef nonnull align 8 dereferenceable(96) %ref.tmp)
          to label %invoke.cont unwind label %lpad

invoke.cont:                                      ; preds = %if.then
  %call3 = invoke noundef nonnull align 8 dereferenceable(8) ptr @_ZStlsIcSt11char_traitsIcESaIcEERSt13basic_ostreamIT_T0_ES7_RKNSt7__cxx1112basic_stringIS4_S5_T1_EE(ptr noundef nonnull align 8 dereferenceable(8) %call, ptr noundef nonnull align 8 dereferenceable(32) %msg)
          to label %if.end.sink.split unwind label %lpad

lpad:                                             ; preds = %invoke.cont, %if.then
  %2 = landingpad { ptr, i32 }
          cleanup
  br label %eh.resume

if.else:                                          ; preds = %entry
  %3 = load ptr, ptr @_ZZNK8proxygen17HPACKDecodeBuffer7EOB_LOGENSt7__cxx1112basic_stringIcSt11char_traitsIcESaIcEEENS_5HPACK11DecodeErrorEE8vlocal__, align 8
  %cmp4 = icmp eq ptr %3, null
  br i1 %cmp4, label %cond.true, label %cond.end

cond.true:                                        ; preds = %if.else
  %call5 = tail call noundef zeroext i1 @_ZN6google11InitVLOG3__EPNS_8SiteFlagEPiPKci(ptr noundef nonnull @_ZZNK8proxygen17HPACKDecodeBuffer7EOB_LOGENSt7__cxx1112basic_stringIcSt11char_traitsIcESaIcEEENS_5HPACK11DecodeErrorEE8vlocal__, ptr noundef nonnull @_ZN3fLI7FLAGS_vE, ptr noundef nonnull @.str, i32 noundef 4)
  br i1 %call5, label %cond.false9, label %if.end

cond.end:                                         ; preds = %if.else
  %4 = load i32, ptr %3, align 4
  %cmp6 = icmp sgt i32 %4, 3
  br i1 %cmp6, label %cond.false9, label %if.end

cond.false9:                                      ; preds = %cond.true, %cond.end
  call void @_ZN6google10LogMessageC1EPKci(ptr noundef nonnull align 8 dereferenceable(96) %ref.tmp11, ptr noundef nonnull @.str, i32 noundef 25)
  %call14 = invoke noundef nonnull align 8 dereferenceable(8) ptr @_ZN6google10LogMessage6streamEv(ptr noundef nonnull align 8 dereferenceable(96) %ref.tmp11)
          to label %invoke.cont13 unwind label %lpad12

invoke.cont13:                                    ; preds = %cond.false9
  %call16 = invoke noundef nonnull align 8 dereferenceable(8) ptr @_ZStlsIcSt11char_traitsIcESaIcEERSt13basic_ostreamIT_T0_ES7_RKNSt7__cxx1112basic_stringIS4_S5_T1_EE(ptr noundef nonnull align 8 dereferenceable(8) %call14, ptr noundef nonnull align 8 dereferenceable(32) %msg)
          to label %if.end.sink.split unwind label %lpad12

lpad12:                                           ; preds = %invoke.cont13, %cond.false9
  %5 = landingpad { ptr, i32 }
          cleanup
  br label %eh.resume

if.end.sink.split:                                ; preds = %invoke.cont13, %invoke.cont
  %ref.tmp11.sink = phi ptr [ %ref.tmp, %invoke.cont ], [ %ref.tmp11, %invoke.cont13 ]
  call void @_ZN6google10LogMessageD1Ev(ptr noundef nonnull align 8 dereferenceable(96) %ref.tmp11.sink) #19
  br label %if.end

if.end:                                           ; preds = %if.end.sink.split, %cond.true, %cond.end
  ret void

eh.resume:                                        ; preds = %lpad12, %lpad
  %ref.tmp11.sink4 = phi ptr [ %ref.tmp11, %lpad12 ], [ %ref.tmp, %lpad ]
  %.pn = phi { ptr, i32 } [ %5, %lpad12 ], [ %2, %lpad ]
  call void @_ZN6google10LogMessageD1Ev(ptr noundef nonnull align 8 dereferenceable(96) %ref.tmp11.sink4) #19
  resume { ptr, i32 } %.pn
}